; Function Attrs: mustprogress nounwind uwtable
define internal void @_ZN12_GLOBAL__N_115CFGSimplifyPassD0Ev(ptr noundef nonnull align 8 dereferenceable(88) initializes((0, 8)) %0) unnamed_addr #0 align 2 {
  store ptr getelementptr inbounds nuw inrange(-16, 144) (i8, ptr @_ZTVN12_GLOBAL__N_115CFGSimplifyPassE, i64 16), ptr %0, align 8
  %2 = getelementptr inbounds nuw i8, ptr %0, i64 72
  %3 = load ptr, ptr %2, align 8
  %.not.i.i.i = icmp eq ptr %3, null
  br i1 %.not.i.i.i, label %_ZN12_GLOBAL__N_115CFGSimplifyPassD2Ev.exit, label %4

4:                                                ; preds = %1
  %5 = getelementptr inbounds nuw i8, ptr %0, i64 56
  %6 = tail call noundef zeroext i1 %3(ptr noundef nonnull align 8 dereferenceable(32) %5, ptr noundef nonnull align 8 dereferenceable(32) %5, i32 noundef 3) #20
  br label %_ZN12_GLOBAL__N_115CFGSimplifyPassD2Ev.exit

_ZN12_GLOBAL__N_115CFGSimplifyPassD2Ev.exit:      ; preds = %1, %4
  tail call void @_ZN4llvm4PassD2Ev(ptr noundef nonnull align 8 dereferenceable(88) %0) #20
  tail call void @_ZdlPvm(ptr noundef nonnull %0, i64 noundef 88) #24
  ret void
}